target datalayout = "e-m:e-p270:32:32-p271:32:32-p272:64:64-i64:64-i128:128-f80:128-n8:16:32:64-S128"
target triple = "x86_64-pc-linux-gnu"

%"class.rocksdb::PlainTableBloomV1" = type { i32, i32, i32, ptr }

; Function Attrs: mustprogress nounwind uwtable
define internal noundef i32 @_ZN7rocksdb12_GLOBAL__N_123GetTotalBitsForLocalityEj(i32 noundef %0) #3 {
  %2 = alloca i32, align 4
  %3 = alloca i32, align 4
  store i32 %0, ptr %2, align 4, !tbaa !19
  call void @llvm.lifetime.start.p0(i64 4, ptr %3) #4
  %4 = load i32, ptr %2, align 4, !tbaa !19
  %5 = add i32 %4, 512
  %6 = sub i32 %5, 1
  %7 = udiv i32 %6, 512
  store i32 %7, ptr %3, align 4, !tbaa !19
  %8 = load i32, ptr %3, align 4, !tbaa !19
  %9 = urem i32 %8, 2
  %10 = icmp eq i32 %9, 0
  br i1 %10, label %11, label %14

11:                                               ; preds = %1
  %12 = load i32, ptr %3, align 4, !tbaa !19
  %13 = add i32 %12, 1
  store i32 %13, ptr %3, align 4, !tbaa !19
  br label %14

14:                                               ; preds = %11, %1
  %15 = load i32, ptr %3, align 4, !tbaa !19
  %16 = mul i32 %15, 512
  call void @llvm.lifetime.end.p0(i64 4, ptr %3) #4
  ret i32 %16
}

; Function Attrs: mustprogress uwtable
define void @_ZN7rocksdb17PlainTableBloomV112SetTotalBitsEPNS_9AllocatorEjjmPNS_6LoggerE(ptr noundef nonnull align 8 dereferenceable(24) %0, ptr noundef %1, i32 noundef %2, i32 noundef %3, i64 noundef %4, ptr noundef %5) #5 align 2 {
  %7 = alloca ptr, align 8
  %8 = alloca ptr, align 8
  %9 = alloca i32, align 4
  %10 = alloca i32, align 4
  %11 = alloca i64, align 8
  %12 = alloca ptr, align 8
  %13 = alloca i32, align 4
  %14 = alloca ptr, align 8
  %15 = alloca i64, align 8
  store ptr %0, ptr %7, align 8, !tbaa !17
  store ptr %1, ptr %8, align 8, !tbaa !28
  store i32 %2, ptr %9, align 4, !tbaa !19
  store i32 %3, ptr %10, align 4, !tbaa !19
  store i64 %4, ptr %11, align 8, !tbaa !4
  store ptr %5, ptr %12, align 8, !tbaa !30
  %16 = load ptr, ptr %7, align 8
  %17 = load i32, ptr %10, align 4, !tbaa !19
  %18 = icmp ugt i32 %17, 0
  br i1 %18, label %19, label %22

19:                                               ; preds = %6
  %20 = load i32, ptr %9, align 4, !tbaa !19
  %21 = call noundef i32 @_ZN7rocksdb12_GLOBAL__N_123GetTotalBitsForLocalityEj(i32 noundef %20)
  br label %27

22:                                               ; preds = %6
  %23 = load i32, ptr %9, align 4, !tbaa !19
  %24 = add i32 %23, 7
  %25 = udiv i32 %24, 8
  %26 = mul i32 %25, 8
  br label %27

27:                                               ; preds = %22, %19
  %28 = phi i32 [ %21, %19 ], [ %26, %22 ]
  %29 = getelementptr inbounds nuw %"class.rocksdb::PlainTableBloomV1", ptr %16, i32 0, i32 0
  store i32 %28, ptr %29, align 8, !tbaa !21
  %30 = load i32, ptr %10, align 4, !tbaa !19
  %31 = icmp ugt i32 %30, 0
  br i1 %31, label %32, label %36

32:                                               ; preds = %27
  %33 = getelementptr inbounds nuw %"class.rocksdb::PlainTableBloomV1", ptr %16, i32 0, i32 0
  %34 = load i32, ptr %33, align 8, !tbaa !21
  %35 = udiv i32 %34, 512
  br label %37

36:                                               ; preds = %27
  br label %37

37:                                               ; preds = %36, %32
  %38 = phi i32 [ %35, %32 ], [ 0, %36 ]
  %39 = getelementptr inbounds nuw %"class.rocksdb::PlainTableBloomV1", ptr %16, i32 0, i32 1
  store i32 %38, ptr %39, align 4, !tbaa !24
  call void @llvm.lifetime.start.p0(i64 4, ptr %13) #4
  %40 = getelementptr inbounds nuw %"class.rocksdb::PlainTableBloomV1", ptr %16, i32 0, i32 0
  %41 = load i32, ptr %40, align 8, !tbaa !21
  %42 = udiv i32 %41, 8
  store i32 %42, ptr %13, align 4, !tbaa !19
  %43 = getelementptr inbounds nuw %"class.rocksdb::PlainTableBloomV1", ptr %16, i32 0, i32 1
  %44 = load i32, ptr %43, align 4, !tbaa !24
  %45 = icmp ugt i32 %44, 0
  br i1 %45, label %46, label %49

46:                                               ; preds = %37
  %47 = load i32, ptr %13, align 4, !tbaa !19
  %48 = add i32 %47, 63
  store i32 %48, ptr %13, align 4, !tbaa !19
  br label %49

49:                                               ; preds = %46, %37
  call void @llvm.lifetime.start.p0(i64 8, ptr %14) #4
  %50 = load ptr, ptr %8, align 8, !tbaa !28
  %51 = load i32, ptr %13, align 4, !tbaa !19
  %52 = zext i32 %51 to i64
  %53 = load i64, ptr %11, align 8, !tbaa !4
  %54 = load ptr, ptr %12, align 8, !tbaa !30
  %55 = load ptr, ptr %50, align 8, !tbaa !32
  %56 = getelementptr inbounds ptr, ptr %55, i64 3
  %57 = load ptr, ptr %56, align 8
  %58 = call noundef ptr %57(ptr noundef nonnull align 8 dereferenceable(8) %50, i64 noundef %52, i64 noundef %53, ptr noundef %54)
  store ptr %58, ptr %14, align 8, !tbaa !27
  %59 = load ptr, ptr %14, align 8, !tbaa !27
  %60 = load i32, ptr %13, align 4, !tbaa !19
  %61 = zext i32 %60 to i64
  call void @llvm.memset.p0.i64(ptr align 1 %59, i8 0, i64 %61, i1 false)
  call void @llvm.lifetime.start.p0(i64 8, ptr %15) #4
  %62 = load ptr, ptr %14, align 8, !tbaa !27
  %63 = ptrtoint ptr %62 to i64
  %64 = urem i64 %63, 64
  store i64 %64, ptr %15, align 8, !tbaa !4
  %65 = getelementptr inbounds nuw %"class.rocksdb::PlainTableBloomV1", ptr %16, i32 0, i32 1
  %66 = load i32, ptr %65, align 4, !tbaa !24
  %67 = icmp ugt i32 %66, 0
  br i1 %67, label %68, label %76

68:                                               ; preds = %49
  %69 = load i64, ptr %15, align 8, !tbaa !4
  %70 = icmp ugt i64 %69, 0
  br i1 %70, label %71, label %76

71:                                               ; preds = %68
  %72 = load i64, ptr %15, align 8, !tbaa !4
  %73 = sub i64 64, %72
  %74 = load ptr, ptr %14, align 8, !tbaa !27
  %75 = getelementptr inbounds nuw i8, ptr %74, i64 %73
  store ptr %75, ptr %14, align 8, !tbaa !27
  br label %76

76:                                               ; preds = %71, %68, %49
  %77 = load ptr, ptr %14, align 8, !tbaa !27
  %78 = getelementptr inbounds nuw %"class.rocksdb::PlainTableBloomV1", ptr %16, i32 0, i32 3
  store ptr %77, ptr %78, align 8, !tbaa !26
  call void @llvm.lifetime.end.p0(i64 8, ptr %15) #4
  call void @llvm.lifetime.end.p0(i64 8, ptr %14) #4
  call void @llvm.lifetime.end.p0(i64 4, ptr %13) #4
  ret void
}